target datalayout = "e-m:e-p270:32:32-p271:32:32-p272:64:64-i64:64-i128:128-f80:128-n8:16:32:64-S128"
target triple = "x86_64-pc-linux-gnu"

%struct.AVFilterContext = type { ptr, ptr, ptr, ptr, ptr, i32, ptr, ptr, i32, ptr, ptr, i32, i32, ptr, ptr, ptr, ptr, i32, ptr, i32, i32 }
%struct.AVFilterFormatsConfig = type { ptr, ptr, ptr, ptr, ptr }
%struct.AVFilterLink = type { ptr, ptr, ptr, ptr, i32, i32, i32, i32, %struct.AVRational, i32, i32, i32, %struct.AVChannelLayout, %struct.AVRational, ptr, i32, %struct.AVFilterFormatsConfig, %struct.AVFilterFormatsConfig }
%struct.AVChannelLayout = type { i32, i32, %union.anon.1, ptr }
%union.anon.1 = type { i64 }
%struct.AVRational = type { i32, i32 }
%struct.AVFrame = type { [8 x ptr], [8 x i32], ptr, i32, i32, i32, i32, i32, %struct.AVRational, i64, i64, %struct.AVRational, i32, ptr, i32, i32, [8 x ptr], ptr, i32, ptr, i32, i32, i32, i32, i32, i32, i32, i64, ptr, i32, ptr, ptr, i64, i64, i64, i64, ptr, %struct.AVChannelLayout, i64 }

@.str.3 = private unnamed_addr constant [40 x i8] c"Failed to allocate frame to upload to.\0A\00", align 1
@.str.4 = private unnamed_addr constant [29 x i8] c"Failed to upload frame: %d.\0A\00", align 1

; Function Attrs: nounwind uwtable
define internal i32 @hwupload_filter_frame(ptr noundef %0, ptr noundef %1) #0 {
  %3 = alloca i32, align 4
  %4 = alloca ptr, align 8
  %5 = alloca ptr, align 8
  %6 = alloca ptr, align 8
  %7 = alloca ptr, align 8
  %8 = alloca ptr, align 8
  %9 = alloca ptr, align 8
  %10 = alloca i32, align 4
  %11 = alloca i32, align 4
  store ptr %0, ptr %4, align 8, !tbaa !44
  store ptr %1, ptr %5, align 8, !tbaa !46
  call void @llvm.lifetime.start.p0(i64 8, ptr %6) #5
  %12 = load ptr, ptr %4, align 8, !tbaa !44
  %13 = getelementptr inbounds nuw %struct.AVFilterLink, ptr %12, i32 0, i32 2
  %14 = load ptr, ptr %13, align 8, !tbaa !48
  store ptr %14, ptr %6, align 8, !tbaa !4
  call void @llvm.lifetime.start.p0(i64 8, ptr %7) #5
  %15 = load ptr, ptr %6, align 8, !tbaa !4
  %16 = getelementptr inbounds nuw %struct.AVFilterContext, ptr %15, i32 0, i32 7
  %17 = load ptr, ptr %16, align 8, !tbaa !55
  %18 = getelementptr inbounds ptr, ptr %17, i64 0
  %19 = load ptr, ptr %18, align 8, !tbaa !44
  store ptr %19, ptr %7, align 8, !tbaa !44
  call void @llvm.lifetime.start.p0(i64 8, ptr %8) #5
  %20 = load ptr, ptr %6, align 8, !tbaa !4
  %21 = getelementptr inbounds nuw %struct.AVFilterContext, ptr %20, i32 0, i32 9
  %22 = load ptr, ptr %21, align 8, !tbaa !9
  store ptr %22, ptr %8, align 8, !tbaa !22
  call void @llvm.lifetime.start.p0(i64 8, ptr %9) #5
  store ptr null, ptr %9, align 8, !tbaa !46
  call void @llvm.lifetime.start.p0(i64 4, ptr %10) #5
  %23 = load ptr, ptr %5, align 8, !tbaa !46
  %24 = getelementptr inbounds nuw %struct.AVFrame, ptr %23, i32 0, i32 6
  %25 = load i32, ptr %24, align 4, !tbaa !56
  %26 = load ptr, ptr %7, align 8, !tbaa !44
  %27 = getelementptr inbounds nuw %struct.AVFilterLink, ptr %26, i32 0, i32 5
  %28 = load i32, ptr %27, align 4, !tbaa !62
  %29 = icmp eq i32 %25, %28
  br i1 %29, label %30, label %34

30:                                               ; preds = %2
  %31 = load ptr, ptr %7, align 8, !tbaa !44
  %32 = load ptr, ptr %5, align 8, !tbaa !46
  %33 = call i32 @ff_filter_frame(ptr noundef %31, ptr noundef %32)
  store i32 %33, ptr %3, align 4
  store i32 1, ptr %11, align 4
  br label %79

34:                                               ; preds = %2
  %35 = load ptr, ptr %7, align 8, !tbaa !44
  %36 = load ptr, ptr %7, align 8, !tbaa !44
  %37 = getelementptr inbounds nuw %struct.AVFilterLink, ptr %36, i32 0, i32 6
  %38 = load i32, ptr %37, align 8, !tbaa !63
  %39 = load ptr, ptr %7, align 8, !tbaa !44
  %40 = getelementptr inbounds nuw %struct.AVFilterLink, ptr %39, i32 0, i32 7
  %41 = load i32, ptr %40, align 4, !tbaa !64
  %42 = call ptr @ff_get_video_buffer(ptr noundef %35, i32 noundef %38, i32 noundef %41)
  store ptr %42, ptr %9, align 8, !tbaa !46
  %43 = load ptr, ptr %9, align 8, !tbaa !46
  %44 = icmp ne ptr %43, null
  br i1 %44, label %47, label %45

45:                                               ; preds = %34
  %46 = load ptr, ptr %8, align 8, !tbaa !22
  call void (ptr, i32, ptr, ...) @av_log(ptr noundef %46, i32 noundef 16, ptr noundef @.str.3)
  store i32 -12, ptr %10, align 4, !tbaa !28
  br label %77

47:                                               ; preds = %34
  %48 = load ptr, ptr %5, align 8, !tbaa !46
  %49 = getelementptr inbounds nuw %struct.AVFrame, ptr %48, i32 0, i32 3
  %50 = load i32, ptr %49, align 8, !tbaa !65
  %51 = load ptr, ptr %9, align 8, !tbaa !46
  %52 = getelementptr inbounds nuw %struct.AVFrame, ptr %51, i32 0, i32 3
  store i32 %50, ptr %52, align 8, !tbaa !65
  %53 = load ptr, ptr %5, align 8, !tbaa !46
  %54 = getelementptr inbounds nuw %struct.AVFrame, ptr %53, i32 0, i32 4
  %55 = load i32, ptr %54, align 4, !tbaa !66
  %56 = load ptr, ptr %9, align 8, !tbaa !46
  %57 = getelementptr inbounds nuw %struct.AVFrame, ptr %56, i32 0, i32 4
  store i32 %55, ptr %57, align 4, !tbaa !66
  %58 = load ptr, ptr %9, align 8, !tbaa !46
  %59 = load ptr, ptr %5, align 8, !tbaa !46
  %60 = call i32 @av_hwframe_transfer_data(ptr noundef %58, ptr noundef %59, i32 noundef 0)
  store i32 %60, ptr %10, align 4, !tbaa !28
  %61 = load i32, ptr %10, align 4, !tbaa !28
  %62 = icmp slt i32 %61, 0
  br i1 %62, label %63, label %66

63:                                               ; preds = %47
  %64 = load ptr, ptr %8, align 8, !tbaa !22
  %65 = load i32, ptr %10, align 4, !tbaa !28
  call void (ptr, i32, ptr, ...) @av_log(ptr noundef %64, i32 noundef 16, ptr noundef @.str.4, i32 noundef %65)
  br label %77

66:                                               ; preds = %47
  %67 = load ptr, ptr %9, align 8, !tbaa !46
  %68 = load ptr, ptr %5, align 8, !tbaa !46
  %69 = call i32 @av_frame_copy_props(ptr noundef %67, ptr noundef %68)
  store i32 %69, ptr %10, align 4, !tbaa !28
  %70 = load i32, ptr %10, align 4, !tbaa !28
  %71 = icmp slt i32 %70, 0
  br i1 %71, label %72, label %73

72:                                               ; preds = %66
  br label %77

73:                                               ; preds = %66
  call void @av_frame_free(ptr noundef %5)
  %74 = load ptr, ptr %7, align 8, !tbaa !44
  %75 = load ptr, ptr %9, align 8, !tbaa !46
  %76 = call i32 @ff_filter_frame(ptr noundef %74, ptr noundef %75)
  store i32 %76, ptr %3, align 4
  store i32 1, ptr %11, align 4
  br label %79

77:                                               ; preds = %72, %63, %45
  call void @av_frame_free(ptr noundef %5)
  call void @av_frame_free(ptr noundef %9)
  %78 = load i32, ptr %10, align 4, !tbaa !28
  store i32 %78, ptr %3, align 4
  store i32 1, ptr %11, align 4
  br label %79

79:                                               ; preds = %77, %73, %30
  call void @llvm.lifetime.end.p0(i64 4, ptr %10) #5
  call void @llvm.lifetime.end.p0(i64 8, ptr %9) #5
  call void @llvm.lifetime.end.p0(i64 8, ptr %8) #5
  call void @llvm.lifetime.end.p0(i64 8, ptr %7) #5
  call void @llvm.lifetime.end.p0(i64 8, ptr %6) #5
  %80 = load i32, ptr %3, align 4
  ret i32 %80
}