; Function Attrs: nounwind uwtable
define internal i32 @hwupload_filter_frame(ptr noundef readonly captures(none) %0, ptr noundef %1) #0 {
  %3 = alloca ptr, align 8
  %4 = alloca ptr, align 8
  store ptr %1, ptr %3, align 8, !tbaa !37
  %5 = getelementptr inbounds nuw i8, ptr %0, i64 16
  %6 = load ptr, ptr %5, align 8, !tbaa !39
  %7 = getelementptr inbounds nuw i8, ptr %6, i64 56
  %8 = load ptr, ptr %7, align 8, !tbaa !47
  %9 = load ptr, ptr %8, align 8, !tbaa !48
  %10 = getelementptr inbounds nuw i8, ptr %6, i64 72
  %11 = load ptr, ptr %10, align 8, !tbaa !4
  call void @llvm.lifetime.start.p0(i64 8, ptr nonnull %4) #5
  %12 = getelementptr inbounds nuw i8, ptr %1, i64 116
  %13 = load i32, ptr %12, align 4, !tbaa !50
  %14 = getelementptr inbounds nuw i8, ptr %9, i64 36
  %15 = load i32, ptr %14, align 4, !tbaa !56
  %16 = icmp eq i32 %13, %15
  br i1 %16, label %17, label %19

17:                                               ; preds = %2
  %18 = tail call i32 @ff_filter_frame(ptr noundef nonnull %9, ptr noundef nonnull %1) #5
  br label %42

19:                                               ; preds = %2
  %20 = getelementptr inbounds nuw i8, ptr %9, i64 40
  %21 = load i32, ptr %20, align 8, !tbaa !57
  %22 = getelementptr inbounds nuw i8, ptr %9, i64 44
  %23 = load i32, ptr %22, align 4, !tbaa !58
  %24 = tail call ptr @ff_get_video_buffer(ptr noundef nonnull %9, i32 noundef %21, i32 noundef %23) #5
  store ptr %24, ptr %4, align 8, !tbaa !37
  %.not = icmp eq ptr %24, null
  br i1 %.not, label %25, label %26

25:                                               ; preds = %19
  tail call void (ptr, i32, ptr, ...) @av_log(ptr noundef %11, i32 noundef 16, ptr noundef nonnull @.str.3) #5
  br label %41

26:                                               ; preds = %19
  %27 = getelementptr inbounds nuw i8, ptr %1, i64 104
  %28 = load i32, ptr %27, align 8, !tbaa !59
  %29 = getelementptr inbounds nuw i8, ptr %24, i64 104
  store i32 %28, ptr %29, align 8, !tbaa !59
  %30 = getelementptr inbounds nuw i8, ptr %1, i64 108
  %31 = load i32, ptr %30, align 4, !tbaa !60
  %32 = getelementptr inbounds nuw i8, ptr %24, i64 108
  store i32 %31, ptr %32, align 4, !tbaa !60
  %33 = tail call i32 @av_hwframe_transfer_data(ptr noundef nonnull %24, ptr noundef nonnull %1, i32 noundef 0) #5
  %34 = icmp slt i32 %33, 0
  br i1 %34, label %35, label %36

35:                                               ; preds = %26
  tail call void (ptr, i32, ptr, ...) @av_log(ptr noundef %11, i32 noundef 16, ptr noundef nonnull @.str.4, i32 noundef %33) #5
  br label %41

36:                                               ; preds = %26
  %37 = tail call i32 @av_frame_copy_props(ptr noundef nonnull %24, ptr noundef nonnull %1) #5
  %38 = icmp slt i32 %37, 0
  br i1 %38, label %41, label %39

39:                                               ; preds = %36
  call void @av_frame_free(ptr noundef nonnull %3) #5
  %40 = call i32 @ff_filter_frame(ptr noundef nonnull %9, ptr noundef nonnull %24) #5
  br label %42

41:                                               ; preds = %36, %35, %25
  %.0 = phi i32 [ %33, %35 ], [ %37, %36 ], [ -12, %25 ]
  call void @av_frame_free(ptr noundef nonnull %3) #5
  call void @av_frame_free(ptr noundef nonnull %4) #5
  br label %42

42:                                               ; preds = %41, %39, %17
  %.015 = phi i32 [ %18, %17 ], [ %.0, %41 ], [ %40, %39 ]
  call void @llvm.lifetime.end.p0(i64 8, ptr nonnull %4) #5
  ret i32 %.015
}